target datalayout = "e-m:e-p270:32:32-p271:32:32-p272:64:64-i64:64-i128:128-f80:128-n8:16:32:64-S128"
target triple = "x86_64-pc-linux-gnu"

%"class.std::__cxx11::basic_string" = type { %"struct.std::__cxx11::basic_string<char>::_Alloc_hider", i64, %union.anon }
%"struct.std::__cxx11::basic_string<char>::_Alloc_hider" = type { ptr }
%union.anon = type { i64, [8 x i8] }
%"class.gmx::TextWriter" = type { %"class.std::unique_ptr.79" }
%"class.std::unique_ptr.79" = type { %"struct.std::__uniq_ptr_data.80" }
%"struct.std::__uniq_ptr_data.80" = type { %"class.std::__uniq_ptr_impl.81" }
%"class.std::__uniq_ptr_impl.81" = type { %"class.std::tuple.82" }
%"class.std::tuple.82" = type { %"struct.std::_Tuple_impl.83" }
%"struct.std::_Tuple_impl.83" = type { %"struct.std::_Head_base.86" }
%"struct.std::_Head_base.86" = type { ptr }
%"class.std::__shared_count" = type { ptr }
%"class.std::shared_ptr.134" = type { %"class.std::__shared_ptr.135" }
%"class.std::__shared_ptr.135" = type { ptr, %"class.std::__shared_count" }
%"class.gmx::(anonymous namespace)::ModificationCheckingFileOutputStream" = type { %"class.gmx::TextOutputStream", %"class.std::filesystem::__cxx11::path", %"class.gmx::StringOutputStream", ptr }
%"class.gmx::TextOutputStream" = type { ptr }
%"class.std::filesystem::__cxx11::path" = type { %"class.std::__cxx11::basic_string", %"struct.std::filesystem::__cxx11::path::_List" }
%"struct.std::filesystem::__cxx11::path::_List" = type { %"class.std::unique_ptr.137" }
%"class.std::unique_ptr.137" = type { %"struct.std::__uniq_ptr_data.138" }
%"struct.std::__uniq_ptr_data.138" = type { %"class.std::__uniq_ptr_impl.139" }
%"class.std::__uniq_ptr_impl.139" = type { %"class.std::tuple.140" }
%"class.std::tuple.140" = type { %"struct.std::_Tuple_impl.141" }
%"struct.std::_Tuple_impl.141" = type { %"struct.std::_Head_base.144" }
%"struct.std::_Head_base.144" = type { ptr }
%"class.gmx::StringOutputStream" = type { %"class.gmx::TextOutputStream", %"class.std::__cxx11::basic_string" }

; Function Attrs: noreturn nounwind uwtable
define linkonce_odr hidden void @__clang_call_terminate(ptr noundef %0) #7 comdat {
  %2 = call ptr @__cxa_begin_catch(ptr %0) #14
  call void @_ZSt9terminatev() #18
  unreachable
}

; Function Attrs: mustprogress nounwind uwtable
define linkonce_odr noundef i32 @_ZNSt11char_traitsIcE7compareEPKcS2_m(ptr noundef %0, ptr noundef %1, i64 noundef %2) #0 comdat align 2 {
  %4 = alloca i32, align 4
  %5 = alloca ptr, align 8
  %6 = alloca ptr, align 8
  %7 = alloca i64, align 8
  store ptr %0, ptr %5, align 8
  store ptr %1, ptr %6, align 8
  store i64 %2, ptr %7, align 8
  %8 = load i64, ptr %7, align 8
  %9 = icmp eq i64 %8, 0
  br i1 %9, label %10, label %11

10:                                               ; preds = %3
  store i32 0, ptr %4, align 4
  br label %16

11:                                               ; preds = %3
  %12 = load ptr, ptr %5, align 8
  %13 = load ptr, ptr %6, align 8
  %14 = load i64, ptr %7, align 8
  %15 = call i32 @memcmp(ptr noundef %12, ptr noundef %13, i64 noundef %14) #14
  store i32 %15, ptr %4, align 4
  br label %16

16:                                               ; preds = %11, %10
  %17 = load i32, ptr %4, align 4
  ret i32 %17
}

; Function Attrs: mustprogress nounwind uwtable
define linkonce_odr noundef zeroext i1 @_ZSteqIcEN9__gnu_cxx11__enable_ifIXsr9__is_charIT_EE7__valueEbE6__typeERKNSt7__cxx1112basic_stringIS2_St11char_traitsIS2_ESaIS2_EEESC_(ptr noundef nonnull align 8 dereferenceable(32) %0, ptr noundef nonnull align 8 dereferenceable(32) %1) #0 comdat personality ptr @__gxx_personality_v0 {
  %3 = alloca ptr, align 8
  %4 = alloca ptr, align 8
  store ptr %0, ptr %3, align 8
  store ptr %1, ptr %4, align 8
  %5 = load ptr, ptr %3, align 8
  %6 = call noundef i64 @_ZNKSt7__cxx1112basic_stringIcSt11char_traitsIcESaIcEE4sizeEv(ptr noundef nonnull align 8 dereferenceable(32) %5) #14
  %7 = load ptr, ptr %4, align 8
  %8 = call noundef i64 @_ZNKSt7__cxx1112basic_stringIcSt11char_traitsIcESaIcEE4sizeEv(ptr noundef nonnull align 8 dereferenceable(32) %7) #14
  %9 = icmp eq i64 %6, %8
  br i1 %9, label %10, label %21

10:                                               ; preds = %2
  %11 = load ptr, ptr %3, align 8
  %12 = call noundef ptr @_ZNKSt7__cxx1112basic_stringIcSt11char_traitsIcESaIcEE4dataEv(ptr noundef nonnull align 8 dereferenceable(32) %11) #14
  %13 = load ptr, ptr %4, align 8
  %14 = call noundef ptr @_ZNKSt7__cxx1112basic_stringIcSt11char_traitsIcESaIcEE4dataEv(ptr noundef nonnull align 8 dereferenceable(32) %13) #14
  %15 = load ptr, ptr %3, align 8
  %16 = call noundef i64 @_ZNKSt7__cxx1112basic_stringIcSt11char_traitsIcESaIcEE4sizeEv(ptr noundef nonnull align 8 dereferenceable(32) %15) #14
  %17 = invoke noundef i32 @_ZNSt11char_traitsIcE7compareEPKcS2_m(ptr noundef %12, ptr noundef %14, i64 noundef %16)
          to label %18 unwind label %23

18:                                               ; preds = %10
  %19 = icmp ne i32 %17, 0
  %20 = xor i1 %19, true
  br label %21

21:                                               ; preds = %18, %2
  %22 = phi i1 [ false, %2 ], [ %20, %18 ]
  ret i1 %22

23:                                               ; preds = %10
  %24 = landingpad { ptr, i32 }
          catch ptr null
  %25 = extractvalue { ptr, i32 } %24, 0
  call void @__clang_call_terminate(ptr %25) #18
  unreachable
}

; Function Attrs: mustprogress nounwind uwtable
define linkonce_odr noundef nonnull align 8 dereferenceable(32) ptr @_ZNK3gmx18StringOutputStream8toStringB5cxx11Ev(ptr noundef nonnull align 8 dereferenceable(40) %0) #0 comdat align 2 {
  %2 = alloca ptr, align 8
  store ptr %0, ptr %2, align 8
  %3 = load ptr, ptr %2, align 8
  %4 = getelementptr inbounds %"class.gmx::StringOutputStream", ptr %3, i32 0, i32 1
  ret ptr %4
}

; Function Attrs: mustprogress uwtable
define internal void @_ZN3gmx12_GLOBAL__N_136ModificationCheckingFileOutputStream5closeEv(ptr noundef nonnull align 8 dereferenceable(96) %0) unnamed_addr #1 align 2 personality ptr @__gxx_personality_v0 {
  %2 = alloca ptr, align 8
  %3 = alloca ptr, align 8
  %4 = alloca %"class.std::__cxx11::basic_string", align 8
  %5 = alloca i32, align 4
  %6 = alloca %"class.gmx::TextWriter", align 8
  %7 = alloca %"class.std::shared_ptr.134", align 8
  %8 = alloca ptr, align 8
  %9 = alloca i32, align 4
  store ptr %0, ptr %2, align 8
  %10 = load ptr, ptr %2, align 8
  %11 = getelementptr inbounds %"class.gmx::(anonymous namespace)::ModificationCheckingFileOutputStream", ptr %10, i32 0, i32 2
  %12 = call noundef nonnull align 8 dereferenceable(32) ptr @_ZNK3gmx18StringOutputStream8toStringB5cxx11Ev(ptr noundef nonnull align 8 dereferenceable(40) %11)
  store ptr %12, ptr %3, align 8
  %13 = getelementptr inbounds %"class.gmx::(anonymous namespace)::ModificationCheckingFileOutputStream", ptr %10, i32 0, i32 1
  %14 = call noundef zeroext i1 @_ZN3gmx4File6existsERKNSt10filesystem7__cxx114pathEPFvRKNS0_12NotFoundInfoEE(ptr noundef nonnull align 8 dereferenceable(40) %13, ptr noundef @_ZN3gmx4File18returnFalseOnErrorERKNS0_12NotFoundInfoE)
  br i1 %14, label %15, label %24

15:                                               ; preds = %1
  %16 = getelementptr inbounds %"class.gmx::(anonymous namespace)::ModificationCheckingFileOutputStream", ptr %10, i32 0, i32 1
  call void @_ZN3gmx10TextReader16readFileToStringERKNSt10filesystem7__cxx114pathE(ptr dead_on_unwind writable sret(%"class.std::__cxx11::basic_string") align 8 %4, ptr noundef nonnull align 8 dereferenceable(40) %16)
  %17 = load ptr, ptr %3, align 8
  %18 = call noundef zeroext i1 @_ZSteqIcEN9__gnu_cxx11__enable_ifIXsr9__is_charIT_EE7__valueEbE6__typeERKNSt7__cxx1112basic_stringIS2_St11char_traitsIS2_ESaIS2_EEESC_(ptr noundef nonnull align 8 dereferenceable(32) %4, ptr noundef nonnull align 8 dereferenceable(32) %17) #14
  br i1 %18, label %19, label %20

19:                                               ; preds = %15
  store i32 1, ptr %5, align 4
  br label %21

20:                                               ; preds = %15
  store i32 0, ptr %5, align 4
  br label %21

21:                                               ; preds = %20, %19
  call void @_ZNSt7__cxx1112basic_stringIcSt11char_traitsIcESaIcEED1Ev(ptr noundef nonnull align 8 dereferenceable(32) %4) #14
  %22 = load i32, ptr %5, align 4
  switch i32 %22, label %48 [
    i32 0, label %23
    i32 1, label %34
  ]

23:                                               ; preds = %21
  br label %24

24:                                               ; preds = %23, %1
  %25 = getelementptr inbounds %"class.gmx::(anonymous namespace)::ModificationCheckingFileOutputStream", ptr %10, i32 0, i32 3
  %26 = load ptr, ptr %25, align 8
  %27 = getelementptr inbounds %"class.gmx::(anonymous namespace)::ModificationCheckingFileOutputStream", ptr %10, i32 0, i32 1
  %28 = load ptr, ptr %26, align 8
  %29 = getelementptr inbounds ptr, ptr %28, i64 3
  %30 = load ptr, ptr %29, align 8
  call void %30(ptr dead_on_unwind writable sret(%"class.std::shared_ptr.134") align 8 %7, ptr noundef nonnull align 8 dereferenceable(8) %26, ptr noundef nonnull align 8 dereferenceable(40) %27)
  invoke void @_ZN3gmx10TextWriterC1ERKSt10shared_ptrINS_16TextOutputStreamEE(ptr noundef nonnull align 8 dereferenceable(8) %6, ptr noundef nonnull align 8 dereferenceable(16) %7)
          to label %31 unwind label %35

31:                                               ; preds = %24
  call void @_ZNSt10shared_ptrIN3gmx16TextOutputStreamEED2Ev(ptr noundef nonnull align 8 dereferenceable(16) %7) #14
  %32 = load ptr, ptr %3, align 8
  invoke void @_ZN3gmx10TextWriter11writeStringERKNSt7__cxx1112basic_stringIcSt11char_traitsIcESaIcEEE(ptr noundef nonnull align 8 dereferenceable(8) %6, ptr noundef nonnull align 8 dereferenceable(32) %32)
          to label %33 unwind label %39

33:                                               ; preds = %31
  call void @_ZN3gmx10TextWriterD1Ev(ptr noundef nonnull align 8 dereferenceable(8) %6) #14
  br label %34

34:                                               ; preds = %33, %21
  ret void

35:                                               ; preds = %24
  %36 = landingpad { ptr, i32 }
          cleanup
  %37 = extractvalue { ptr, i32 } %36, 0
  store ptr %37, ptr %8, align 8
  %38 = extractvalue { ptr, i32 } %36, 1
  store i32 %38, ptr %9, align 4
  call void @_ZNSt10shared_ptrIN3gmx16TextOutputStreamEED2Ev(ptr noundef nonnull align 8 dereferenceable(16) %7) #14
  br label %43

39:                                               ; preds = %31
  %40 = landingpad { ptr, i32 }
          cleanup
  %41 = extractvalue { ptr, i32 } %40, 0
  store ptr %41, ptr %8, align 8
  %42 = extractvalue { ptr, i32 } %40, 1
  store i32 %42, ptr %9, align 4
  call void @_ZN3gmx10TextWriterD1Ev(ptr noundef nonnull align 8 dereferenceable(8) %6) #14
  br label %43

43:                                               ; preds = %39, %35
  %44 = load ptr, ptr %8, align 8
  %45 = load i32, ptr %9, align 4
  %46 = insertvalue { ptr, i32 } poison, ptr %44, 0
  %47 = insertvalue { ptr, i32 } %46, i32 %45, 1
  resume { ptr, i32 } %47

48:                                               ; preds = %21
  unreachable
}