; Function Attrs: mustprogress uwtable
define internal void @_ZN3gmx12_GLOBAL__N_136ModificationCheckingFileOutputStream5closeEv(ptr noundef nonnull align 8 dereferenceable(96) %0) unnamed_addr #1 align 2 personality ptr @__gxx_personality_v0 {
  %2 = alloca %"class.std::__cxx11::basic_string", align 8
  %3 = alloca %"class.gmx::TextWriter", align 8
  %4 = alloca %"class.std::shared_ptr.134", align 8
  %5 = getelementptr inbounds i8, ptr %0, i64 56
  %6 = getelementptr inbounds i8, ptr %0, i64 8
  %7 = tail call noundef zeroext i1 @_ZN3gmx4File6existsERKNSt10filesystem7__cxx114pathEPFvRKNS0_12NotFoundInfoEE(ptr noundef nonnull align 8 dereferenceable(40) %6, ptr noundef nonnull @_ZN3gmx4File18returnFalseOnErrorERKNS0_12NotFoundInfoE)
  br i1 %7, label %8, label %17

8:                                                ; preds = %1
  call void @_ZN3gmx10TextReader16readFileToStringERKNSt10filesystem7__cxx114pathE(ptr dead_on_unwind nonnull writable sret(%"class.std::__cxx11::basic_string") align 8 %2, ptr noundef nonnull align 8 dereferenceable(40) %6)
  %9 = call noundef i64 @_ZNKSt7__cxx1112basic_stringIcSt11char_traitsIcESaIcEE4sizeEv(ptr noundef nonnull align 8 dereferenceable(32) %2) #19
  %10 = call noundef i64 @_ZNKSt7__cxx1112basic_stringIcSt11char_traitsIcESaIcEE4sizeEv(ptr noundef nonnull align 8 dereferenceable(32) %5) #19
  %11 = icmp eq i64 %9, %10
  br i1 %11, label %12, label %_ZSteqIcEN9__gnu_cxx11__enable_ifIXsr9__is_charIT_EE7__valueEbE6__typeERKNSt7__cxx1112basic_stringIS2_St11char_traitsIS2_ESaIS2_EEESC_.exit.thread

_ZSteqIcEN9__gnu_cxx11__enable_ifIXsr9__is_charIT_EE7__valueEbE6__typeERKNSt7__cxx1112basic_stringIS2_St11char_traitsIS2_ESaIS2_EEESC_.exit.thread: ; preds = %8
  call void @_ZNSt7__cxx1112basic_stringIcSt11char_traitsIcESaIcEED1Ev(ptr noundef nonnull align 8 dereferenceable(32) %2) #19
  br label %17

12:                                               ; preds = %8
  %13 = call noundef ptr @_ZNKSt7__cxx1112basic_stringIcSt11char_traitsIcESaIcEE4dataEv(ptr noundef nonnull align 8 dereferenceable(32) %2) #19
  %14 = call noundef ptr @_ZNKSt7__cxx1112basic_stringIcSt11char_traitsIcESaIcEE4dataEv(ptr noundef nonnull align 8 dereferenceable(32) %5) #19
  %15 = call noundef i64 @_ZNKSt7__cxx1112basic_stringIcSt11char_traitsIcESaIcEE4sizeEv(ptr noundef nonnull align 8 dereferenceable(32) %2) #19
  %16 = icmp eq i64 %15, 0
  br i1 %16, label %_ZSteqIcEN9__gnu_cxx11__enable_ifIXsr9__is_charIT_EE7__valueEbE6__typeERKNSt7__cxx1112basic_stringIS2_St11char_traitsIS2_ESaIS2_EEESC_.exit.thread9, label %_ZSteqIcEN9__gnu_cxx11__enable_ifIXsr9__is_charIT_EE7__valueEbE6__typeERKNSt7__cxx1112basic_stringIS2_St11char_traitsIS2_ESaIS2_EEESC_.exit

_ZSteqIcEN9__gnu_cxx11__enable_ifIXsr9__is_charIT_EE7__valueEbE6__typeERKNSt7__cxx1112basic_stringIS2_St11char_traitsIS2_ESaIS2_EEESC_.exit.thread9: ; preds = %12
  call void @_ZNSt7__cxx1112basic_stringIcSt11char_traitsIcESaIcEED1Ev(ptr noundef nonnull align 8 dereferenceable(32) %2) #19
  br label %61

_ZSteqIcEN9__gnu_cxx11__enable_ifIXsr9__is_charIT_EE7__valueEbE6__typeERKNSt7__cxx1112basic_stringIS2_St11char_traitsIS2_ESaIS2_EEESC_.exit: ; preds = %12
  %bcmp.i = call i32 @bcmp(ptr %13, ptr %14, i64 %15)
  %.not = icmp eq i32 %bcmp.i, 0
  call void @_ZNSt7__cxx1112basic_stringIcSt11char_traitsIcESaIcEED1Ev(ptr noundef nonnull align 8 dereferenceable(32) %2) #19
  br i1 %.not, label %61, label %17

17:                                               ; preds = %_ZSteqIcEN9__gnu_cxx11__enable_ifIXsr9__is_charIT_EE7__valueEbE6__typeERKNSt7__cxx1112basic_stringIS2_St11char_traitsIS2_ESaIS2_EEESC_.exit.thread, %_ZSteqIcEN9__gnu_cxx11__enable_ifIXsr9__is_charIT_EE7__valueEbE6__typeERKNSt7__cxx1112basic_stringIS2_St11char_traitsIS2_ESaIS2_EEESC_.exit, %1
  %18 = getelementptr inbounds i8, ptr %0, i64 88
  %19 = load ptr, ptr %18, align 8
  %20 = load ptr, ptr %19, align 8
  %21 = getelementptr inbounds i8, ptr %20, i64 24
  %22 = load ptr, ptr %21, align 8
  call void %22(ptr dead_on_unwind nonnull writable sret(%"class.std::shared_ptr.134") align 8 %4, ptr noundef nonnull align 8 dereferenceable(8) %19, ptr noundef nonnull align 8 dereferenceable(40) %6)
  invoke void @_ZN3gmx10TextWriterC1ERKSt10shared_ptrINS_16TextOutputStreamEE(ptr noundef nonnull align 8 dereferenceable(8) %3, ptr noundef nonnull align 8 dereferenceable(16) %4)
          to label %23 unwind label %62

23:                                               ; preds = %17
  %24 = getelementptr inbounds i8, ptr %4, i64 8
  %25 = load ptr, ptr %24, align 8
  %.not.i.i.i = icmp eq ptr %25, null
  br i1 %.not.i.i.i, label %_ZNSt10shared_ptrIN3gmx16TextOutputStreamEED2Ev.exit, label %26

26:                                               ; preds = %23
  %27 = getelementptr inbounds i8, ptr %25, i64 8
  %28 = load atomic i64, ptr %27 acquire, align 8
  %29 = icmp eq i64 %28, 4294967297
  %30 = trunc i64 %28 to i32
  br i1 %29, label %31, label %36

31:                                               ; preds = %26
  store i32 0, ptr %27, align 8
  %32 = getelementptr inbounds i8, ptr %25, i64 12
  store i32 0, ptr %32, align 4
  %33 = load ptr, ptr %25, align 8
  %34 = getelementptr inbounds i8, ptr %33, i64 16
  %35 = load ptr, ptr %34, align 8
  call void %35(ptr noundef nonnull align 8 dereferenceable(16) %25) #19
  br label %_ZNSt16_Sp_counted_baseILN9__gnu_cxx12_Lock_policyE2EE24_M_release_last_use_coldEv.exit.sink.split.i.i.i.i

36:                                               ; preds = %26
  %37 = load i8, ptr @__libc_single_threaded, align 1
  %.not.i.i.i.i = icmp eq i8 %37, 0
  br i1 %.not.i.i.i.i, label %40, label %38

38:                                               ; preds = %36
  %39 = add nsw i32 %30, -1
  store i32 %39, ptr %27, align 4
  br label %42

40:                                               ; preds = %36
  %41 = atomicrmw volatile add ptr %27, i32 -1 acq_rel, align 4
  br label %42

42:                                               ; preds = %40, %38
  %.0.i.i.i.i = phi i32 [ %30, %38 ], [ %41, %40 ]
  %43 = icmp eq i32 %.0.i.i.i.i, 1
  br i1 %43, label %44, label %_ZNSt10shared_ptrIN3gmx16TextOutputStreamEED2Ev.exit

44:                                               ; preds = %42
  %45 = load ptr, ptr %25, align 8
  %46 = getelementptr inbounds i8, ptr %45, i64 16
  %47 = load ptr, ptr %46, align 8
  call void %47(ptr noundef nonnull align 8 dereferenceable(16) %25) #19
  %48 = getelementptr inbounds i8, ptr %25, i64 12
  %49 = load i8, ptr @__libc_single_threaded, align 1
  %.not.i.i.i.i.i.i = icmp eq i8 %49, 0
  br i1 %.not.i.i.i.i.i.i, label %53, label %50

50:                                               ; preds = %44
  %51 = load i32, ptr %48, align 4
  %52 = add nsw i32 %51, -1
  store i32 %52, ptr %48, align 4
  br label %55

53:                                               ; preds = %44
  %54 = atomicrmw volatile add ptr %48, i32 -1 acq_rel, align 4
  br label %55

55:                                               ; preds = %53, %50
  %.0.i.i.i.i.i.i = phi i32 [ %51, %50 ], [ %54, %53 ]
  %56 = icmp eq i32 %.0.i.i.i.i.i.i, 1
  br i1 %56, label %_ZNSt16_Sp_counted_baseILN9__gnu_cxx12_Lock_policyE2EE24_M_release_last_use_coldEv.exit.sink.split.i.i.i.i, label %_ZNSt10shared_ptrIN3gmx16TextOutputStreamEED2Ev.exit

_ZNSt16_Sp_counted_baseILN9__gnu_cxx12_Lock_policyE2EE24_M_release_last_use_coldEv.exit.sink.split.i.i.i.i: ; preds = %55, %31
  %57 = load ptr, ptr %25, align 8
  %58 = getelementptr inbounds i8, ptr %57, i64 24
  %59 = load ptr, ptr %58, align 8
  call void %59(ptr noundef nonnull align 8 dereferenceable(16) %25) #19
  br label %_ZNSt10shared_ptrIN3gmx16TextOutputStreamEED2Ev.exit

_ZNSt10shared_ptrIN3gmx16TextOutputStreamEED2Ev.exit: ; preds = %23, %42, %55, %_ZNSt16_Sp_counted_baseILN9__gnu_cxx12_Lock_policyE2EE24_M_release_last_use_coldEv.exit.sink.split.i.i.i.i
  invoke void @_ZN3gmx10TextWriter11writeStringERKNSt7__cxx1112basic_stringIcSt11char_traitsIcESaIcEEE(ptr noundef nonnull align 8 dereferenceable(8) %3, ptr noundef nonnull align 8 dereferenceable(32) %5)
          to label %60 unwind label %64

60:                                               ; preds = %_ZNSt10shared_ptrIN3gmx16TextOutputStreamEED2Ev.exit
  call void @_ZN3gmx10TextWriterD1Ev(ptr noundef nonnull align 8 dereferenceable(8) %3) #19
  br label %61

61:                                               ; preds = %_ZSteqIcEN9__gnu_cxx11__enable_ifIXsr9__is_charIT_EE7__valueEbE6__typeERKNSt7__cxx1112basic_stringIS2_St11char_traitsIS2_ESaIS2_EEESC_.exit.thread9, %_ZSteqIcEN9__gnu_cxx11__enable_ifIXsr9__is_charIT_EE7__valueEbE6__typeERKNSt7__cxx1112basic_stringIS2_St11char_traitsIS2_ESaIS2_EEESC_.exit, %60
  ret void

62:                                               ; preds = %17
  %63 = landingpad { ptr, i32 }
          cleanup
  call void @_ZNSt10shared_ptrIN3gmx16TextOutputStreamEED2Ev(ptr noundef nonnull align 8 dereferenceable(16) %4) #19
  br label %66

64:                                               ; preds = %_ZNSt10shared_ptrIN3gmx16TextOutputStreamEED2Ev.exit
  %65 = landingpad { ptr, i32 }
          cleanup
  call void @_ZN3gmx10TextWriterD1Ev(ptr noundef nonnull align 8 dereferenceable(8) %3) #19
  br label %66

66:                                               ; preds = %64, %62
  %.pn = phi { ptr, i32 } [ %65, %64 ], [ %63, %62 ]
  resume { ptr, i32 } %.pn
}